(dp0
S'b'
p1
(lp2
(iTFClasses
TF
p3
(dp4
S'SingleBinFunc'
p5
(iTFClasses
function
p6
(dp7
S'DG_rel_weight'
p8
F0.7
sS'par_values'
p9
(lp10
F19786.36596181374
aF27.293865495815805
aF7.792432224817736
aF1999.9999999511954
aF775.6783015097326
asS'DG_mean'
p11
(lp12
S'[1]'
p13
aS'[3]'
p14
asS'par_errors'
p15
(lp16
F249.613230950951
aF0.18979067985908138
aF0.08068086001788988
aF89.31634050631612
aF3.2505800369410167
asS'par_limits'
p17
(lp18
(I1
F0.0
F2000.0
tp19
a(I2
F0.0
F2000.0
tp20
a(I3
F0.0
F2000.0
tp21
a(I4
F0.0
F2000.0
tp22
asS'Is_DG'
p23
I01
sS'str'
p24
S'[0]*(0.7*exp(-0.5*((x-([1]))/([2]))**2)+(1-0.7)*exp(-0.5*((x-([3]))/([2]+[4]))**2))'
p25
sS'par_initials'
p26
(lp27
S'0'
p28
aS'1.1*mean'
p29
aS'1.0*rms'
p30
aS'0.7*mean'
p31
aS'0.5*rms'
p32
asS'fitrange'
p33
(F30.1
F500.0
tp34
sS'DG_rms'
p35
(lp36
S'[2]'
p37
aS'[2]+[4]'
p38
asbsS'i_eta'
p39
I0
sS'particle'
p40
g1
sS'AcrossBinFuncs'
p41
(lp42
(iTFClasses
function
p43
(dp44
g15
(lp45
sg9
(lp46
sg17
(lp47
sg24
S'1'
p48
sg26
(lp49
sba(iTFClasses
function
p50
(dp51
g15
(lp52
F0.02597923685916234
aF0.0002872272014614456
asg9
(lp53
F-3.914162078545756
aF1.0109916192629311
asg17
(lp54
sg24
S'[0]+[1]*x'
p55
sg26
(lp56
S'0'
p57
ag48
asba(iTFClasses
function
p58
(dp59
g15
(lp60
F0.14030240942920333
aF0.017950957415396547
aF0.001035158274690933
asg9
(lp61
F4.425363530392848
aF0.7581710724974332
aF0.06591019781447016
asg17
(lp62
sg24
S'sqrt([0]*[0] + x*[1]*[1] + x*x*[2]*[2])'
p63
sg26
(lp64
g57
ag57
ag57
asba(iTFClasses
function
p65
(dp66
g15
(lp67
F0.05793286578507242
aF0.0005798667307979929
asg9
(lp68
F-9.915408490352986
aF0.9622363914885306
asg17
(lp69
sg24
g55
sg26
(lp70
g57
ag48
asba(iTFClasses
function
p71
(dp72
g15
(lp73
F0.08723117061062925
aF0.024535717063818824
aF0.0002708964724537765
asg9
(lp74
F3.169790078603437
aF-1.517797512199081e-09
aF0.1159117877750977
asg17
(lp75
sg24
g63
sg26
(lp76
g57
ag57
ag57
asbasba(iTFClasses
TF
p77
(dp78
g5
(iTFClasses
function
p79
(dp80
g8
F0.7
sg9
(lp81
F11542.234167786894
aF28.021679239739306
aF7.320063237754582
aF1.6368240096653608e-08
aF16.17077558496549
asg11
(lp82
g13
ag14
asg15
(lp83
F152.59273001814938
aF0.21303087343743599
aF0.09404481530650433
aF9.35102557837364
aF0.19331030967584262
asg17
(lp84
g19
ag20
ag21
ag22
asg23
I01
sg24
g25
sg26
(lp85
g28
ag29
ag30
ag31
ag32
asg33
g34
sg35
(lp86
g37
ag38
asbsg39
I1
sg40
g1
sg41
(lp87
(iTFClasses
function
p88
(dp89
g15
(lp90
sg9
(lp91
sg17
(lp92
sg24
g48
sg26
(lp93
sba(iTFClasses
function
p94
(dp95
g15
(lp96
F0.03950946884808692
aF0.00043079793332377397
asg9
(lp97
F-4.83116979414104
aF1.0083047118115054
asg17
(lp98
sg24
g55
sg26
(lp99
g57
ag48
asba(iTFClasses
function
p100
(dp101
g15
(lp102
F0.21947728067682165
aF0.020812051428683583
aF0.0018889290377097998
asg9
(lp103
F4.42483904201966
aF1.0421459376379494
aF0.05927883711445329
asg17
(lp104
sg24
g63
sg26
(lp105
g57
ag57
ag57
asba(iTFClasses
function
p106
(dp107
g15
(lp108
F0.09346718965130975
aF0.0009088336788393022
asg9
(lp109
F-11.105422544510938
aF0.9512388172335446
asg17
(lp110
sg24
g55
sg26
(lp111
g57
ag48
asba(iTFClasses
function
p112
(dp113
g15
(lp114
F0.41455408884202716
aF0.03276922767690019
aF0.00023913920420829603
asg9
(lp115
F1.6020677971428075e-09
aF-1.2686165087211784e-11
aF0.11743401725002854
asg17
(lp116
sg24
g63
sg26
(lp117
g57
ag57
ag57
asbasbasS'l'
p118
(lp119
(iTFClasses
TF
p120
(dp121
g5
(iTFClasses
function
p122
(dp123
g8
F0.7
sg9
(lp124
F12896.449701998734
aF32.1827175395315
aF4.191671160767907
aF21.09482552327979
aF11.185537069689167
asg11
(lp125
g13
ag14
asg15
(lp126
F75.30933046921079
aF0.043800099454706753
aF0.051307399587918745
aF0.7198387176569074
aF0.30867297933640003
asg17
(lp127
g19
ag20
ag21
ag22
asg23
I01
sg24
g25
sg26
(lp128
g28
ag29
ag30
ag31
ag32
asg33
g34
sg35
(lp129
g37
ag38
asbsg39
I0
sg40
g118
sg41
(lp130
(iTFClasses
function
p131
(dp132
g15
(lp133
sg9
(lp134
sg17
(lp135
sg24
g48
sg26
(lp136
sba(iTFClasses
function
p137
(dp138
g15
(lp139
F0.0217211263844237
aF0.0002758359470222442
asg9
(lp140
F-1.7453818378948895
aF1.0175736963105795
asg17
(lp141
sg24
g55
sg26
(lp142
g57
ag48
asba(iTFClasses
function
p143
(dp144
g15
(lp145
F0.260641849559776
aF0.002485975554364147
aF0.00038091088597365987
asg9
(lp146
F7.613964491679126e-06
aF0.8550507732574413
aF0.06390679233555573
asg17
(lp147
sg24
g63
sg26
(lp148
g57
ag57
ag57
asba(iTFClasses
function
p149
(dp150
g15
(lp151
F0.035982398117177426
aF0.00040309816487668913
asg9
(lp152
F-8.310843107652724
aF1.0218117776594118
asg17
(lp153
sg24
g55
sg26
(lp154
g57
ag48
asba(iTFClasses
function
p155
(dp156
g15
(lp157
F0.032925595634979786
aF0.05260609465083962
aF0.00033195070523894045
asg9
(lp158
F6.497942833520774
aF3.7862916911742915e-07
aF0.0835069680405405
asg17
(lp159
sg24
g63
sg26
(lp160
g57
ag57
ag57
asbasba(iTFClasses
TF
p161
(dp162
g5
(iTFClasses
function
p163
(dp164
g8
F0.7
sg9
(lp165
F10025.505756879516
aF29.582709991171296
aF6.829519997703093
aF8.972478104233295
aF13.785803117678297
asg11
(lp166
g13
ag14
asg15
(lp167
F235.09228242691356
aF0.21847940218838602
aF0.14650717832970228
aF2.9617978885794205
aF1.0844249308059606
asg17
(lp168
g19
ag20
ag21
ag22
asg23
I01
sg24
g25
sg26
(lp169
g28
ag29
ag30
ag31
ag32
asg33
g34
sg35
(lp170
g37
ag38
asbsg39
I1
sg40
g118
sg41
(lp171
(iTFClasses
function
p172
(dp173
g15
(lp174
sg9
(lp175
sg17
(lp176
sg24
g48
sg26
(lp177
sba(iTFClasses
function
p178
(dp179
g15
(lp180
F0.032522735248547395
aF0.0004003558954810552
asg9
(lp181
F-1.7572151011819754
aF1.021973751540081
asg17
(lp182
sg24
g55
sg26
(lp183
g57
ag48
asba(iTFClasses
function
p184
(dp185
g15
(lp186
F0.19467791851681718
aF0.016449212950445876
aF0.0016595662371481999
asg9
(lp187
F3.332011258059982
aF0.9976060540562717
aF0.057048137888356484
asg17
(lp188
sg24
g63
sg26
(lp189
g57
ag57
ag57
asba(iTFClasses
function
p190
(dp191
g15
(lp192
F0.07405594729180771
aF0.0008102736541267496
asg9
(lp193
F-8.186832027873448
aF1.0150674797386716
asg17
(lp194
sg24
g55
sg26
(lp195
g57
ag48
asba(iTFClasses
function
p196
(dp197
g15
(lp198
F0.05882278988108516
aF0.048454643270355105
aF0.0004288791407494324
asg9
(lp199
F5.494232255264969
aF7.2196321915669e-07
aF0.09631570577716306
asg17
(lp200
sg24
g63
sg26
(lp201
g57
ag57
ag57
asbasbas.